; Function Attrs: mustprogress nofree norecurse nosync nounwind sspstrong willreturn memory(argmem: read) uwtable
define internal zeroext i1 @vfio_display_migration_needed(ptr noundef readonly captures(none) %opaque) #5 {
entry:
  %ramfb_migrate = getelementptr inbounds nuw i8, ptr %opaque, i64 3556
  %0 = load i32, ptr %ramfb_migrate, align 4
  switch i32 %0, label %lor.end.fold.split [
    i32 1, label %lor.end
    i32 0, label %land.rhs
  ]

land.rhs:                                         ; preds = %entry
  %enable_ramfb = getelementptr inbounds nuw i8, ptr %opaque, i64 3553
  %1 = load i8, ptr %enable_ramfb, align 1
  %tobool = trunc i8 %1 to i1
  br label %lor.end

lor.end.fold.split:                               ; preds = %entry
  br label %lor.end

lor.end:                                          ; preds = %entry, %lor.end.fold.split, %land.rhs
  %2 = phi i1 [ true, %entry ], [ %tobool, %land.rhs ], [ false, %lor.end.fold.split ]
  ret i1 %2
}